; ModuleID = 'source-C-CXX/4/919.c'
source_filename = "source-C-CXX/4/919.c"
target datalayout = "e-m:e-p270:32:32-p271:32:32-p272:64:64-i64:64-f80:128-n8:16:32:64-S128"
target triple = "x86_64-pc-linux-gnu"

@.str = private unnamed_addr constant [4 x i8] c"%lf\00", align 1
@.str.1 = private unnamed_addr constant [3 x i8] c"%s\00", align 1
@.str.2 = private unnamed_addr constant [6 x i8] c"error\00", align 1
@.str.3 = private unnamed_addr constant [4 x i8] c"yes\00", align 1
@.str.4 = private unnamed_addr constant [3 x i8] c"no\00", align 1

; Function Attrs: nofree nounwind sspstrong uwtable
define dso_local i32 @main() local_unnamed_addr #0 {
  %1 = alloca double, align 8
  %2 = alloca [500 x i8], align 16
  %3 = alloca [500 x i8], align 16
  %4 = bitcast double* %1 to i8*
  call void @llvm.lifetime.start.p0i8(i64 8, i8* nonnull %4) #3
  %5 = getelementptr inbounds [500 x i8], [500 x i8]* %2, i64 0, i64 0
  call void @llvm.lifetime.start.p0i8(i64 500, i8* nonnull %5) #3
  %6 = getelementptr inbounds [500 x i8], [500 x i8]* %3, i64 0, i64 0
  call void @llvm.lifetime.start.p0i8(i64 500, i8* nonnull %6) #3
  %7 = call i32 (i8*, ...) @__isoc99_scanf(i8* getelementptr inbounds ([4 x i8], [4 x i8]* @.str, i64 0, i64 0), double* nonnull %1)
  %8 = call i32 (i8*, ...) @__isoc99_scanf(i8* getelementptr inbounds ([3 x i8], [3 x i8]* @.str.1, i64 0, i64 0), i8* nonnull %5)
  %9 = call i32 (i8*, ...) @__isoc99_scanf(i8* getelementptr inbounds ([3 x i8], [3 x i8]* @.str.1, i64 0, i64 0), i8* nonnull %6)
  %10 = load i8, i8* %5, align 16, !tbaa !5
  %11 = icmp eq i8 %10, 0
  br i1 %11, label %12, label %16

12:                                               ; preds = %16, %0
  %13 = phi i32 [ 0, %0 ], [ %19, %16 ]
  %14 = load i8, i8* %6, align 16, !tbaa !5
  %15 = icmp eq i8 %14, 0
  br i1 %15, label %32, label %24

16:                                               ; preds = %0, %16
  %17 = phi i64 [ %20, %16 ], [ 0, %0 ]
  %18 = phi i32 [ %19, %16 ], [ 0, %0 ]
  %19 = add nuw nsw i32 %18, 1
  %20 = add nuw nsw i64 %17, 1
  %21 = getelementptr inbounds [500 x i8], [500 x i8]* %2, i64 0, i64 %20
  %22 = load i8, i8* %21, align 1, !tbaa !5
  %23 = icmp eq i8 %22, 0
  br i1 %23, label %12, label %16, !llvm.loop !8

24:                                               ; preds = %12, %24
  %25 = phi i64 [ %28, %24 ], [ 0, %12 ]
  %26 = phi i32 [ %27, %24 ], [ 0, %12 ]
  %27 = add nuw nsw i32 %26, 1
  %28 = add nuw nsw i64 %25, 1
  %29 = getelementptr inbounds [500 x i8], [500 x i8]* %3, i64 0, i64 %28
  %30 = load i8, i8* %29, align 1, !tbaa !5
  %31 = icmp eq i8 %30, 0
  br i1 %31, label %32, label %24, !llvm.loop !10

32:                                               ; preds = %24, %12
  %33 = phi i32 [ 0, %12 ], [ %27, %24 ]
  %34 = icmp eq i32 %13, %33
  br i1 %34, label %35, label %63

35:                                               ; preds = %32, %48
  %36 = phi i8 [ %53, %48 ], [ %10, %32 ]
  %37 = phi i64 [ %51, %48 ], [ 0, %32 ]
  %38 = phi i32 [ %49, %48 ], [ 0, %32 ]
  %39 = phi double [ %50, %48 ], [ 0.000000e+00, %32 ]
  switch i8 %36, label %48 [
    i8 0, label %54
    i8 65, label %40
    i8 67, label %40
    i8 84, label %40
    i8 71, label %40
  ]

40:                                               ; preds = %35, %35, %35, %35
  %41 = getelementptr inbounds [500 x i8], [500 x i8]* %3, i64 0, i64 %37
  %42 = load i8, i8* %41, align 1, !tbaa !5
  %43 = icmp eq i8 %36, %42
  br i1 %43, label %44, label %46

44:                                               ; preds = %40
  %45 = fadd double %39, 1.000000e+00
  br label %48

46:                                               ; preds = %40
  switch i8 %42, label %47 [
    i8 65, label %48
    i8 84, label %48
    i8 67, label %48
    i8 71, label %48
  ]

47:                                               ; preds = %46
  br label %48

48:                                               ; preds = %35, %46, %46, %46, %46, %47, %44
  %49 = phi i32 [ %38, %44 ], [ 1, %47 ], [ %38, %46 ], [ %38, %46 ], [ %38, %46 ], [ %38, %46 ], [ 1, %35 ]
  %50 = phi double [ %45, %44 ], [ %39, %47 ], [ %39, %46 ], [ %39, %46 ], [ %39, %46 ], [ %39, %46 ], [ %39, %35 ]
  %51 = add nuw i64 %37, 1
  %52 = getelementptr inbounds [500 x i8], [500 x i8]* %2, i64 0, i64 %51
  %53 = load i8, i8* %52, align 1, !tbaa !5
  br label %35, !llvm.loop !11

54:                                               ; preds = %35
  %55 = icmp eq i32 %38, 1
  br i1 %55, label %63, label %56

56:                                               ; preds = %54
  %57 = sitofp i32 %13 to double
  %58 = fdiv double %39, %57
  %59 = load double, double* %1, align 8, !tbaa !12
  %60 = fcmp ult double %58, %59
  br i1 %60, label %61, label %63

61:                                               ; preds = %56
  %62 = fcmp olt double %58, %59
  br i1 %62, label %63, label %66

63:                                               ; preds = %61, %56, %54, %32
  %64 = phi i8* [ getelementptr inbounds ([6 x i8], [6 x i8]* @.str.2, i64 0, i64 0), %32 ], [ getelementptr inbounds ([6 x i8], [6 x i8]* @.str.2, i64 0, i64 0), %54 ], [ getelementptr inbounds ([4 x i8], [4 x i8]* @.str.3, i64 0, i64 0), %56 ], [ getelementptr inbounds ([3 x i8], [3 x i8]* @.str.4, i64 0, i64 0), %61 ]
  %65 = call i32 (i8*, ...) @printf(i8* nonnull dereferenceable(1) %64)
  br label %66

66:                                               ; preds = %63, %61
  call void @llvm.lifetime.end.p0i8(i64 500, i8* nonnull %6) #3
  call void @llvm.lifetime.end.p0i8(i64 500, i8* nonnull %5) #3
  call void @llvm.lifetime.end.p0i8(i64 8, i8* nonnull %4) #3
  ret i32 0
}

; Function Attrs: argmemonly mustprogress nofree nosync nounwind willreturn
declare void @llvm.lifetime.start.p0i8(i64 immarg, i8* nocapture) #1

; Function Attrs: nofree nounwind
declare noundef i32 @__isoc99_scanf(i8* nocapture noundef readonly, ...) local_unnamed_addr #2

; Function Attrs: nofree nounwind
declare noundef i32 @printf(i8* nocapture noundef readonly, ...) local_unnamed_addr #2

; Function Attrs: argmemonly mustprogress nofree nosync nounwind willreturn
declare void @llvm.lifetime.end.p0i8(i64 immarg, i8* nocapture) #1


!llvm.module.flags = !{!0, !1, !2, !3}
!llvm.ident = !{!4}

!0 = !{i32 1, !"wchar_size", i32 4}
!1 = !{i32 7, !"PIC Level", i32 2}
!2 = !{i32 7, !"PIE Level", i32 2}
!3 = !{i32 7, !"uwtable", i32 1}
!4 = !{!"clang version 13.0.0"}
!5 = !{!6, !6, i64 0}
!6 = !{!"omnipotent char", !7, i64 0}
!7 = !{!"Simple C/C++ TBAA"}
!8 = distinct !{!8, !9}
!9 = !{!"llvm.loop.mustprogress"}
!10 = distinct !{!10, !9}
!11 = distinct !{!11, !9}
!12 = !{!13, !13, i64 0}
!13 = !{!"double", !6, i64 0}
